target datalayout = "e-m:e-p270:32:32-p271:32:32-p272:64:64-i64:64-i128:128-f80:128-n8:16:32:64-S128"
target triple = "x86_64-unknown-linux-gnu"

%struct.QTailQLink = type { ptr, ptr }
%struct.CompareState = type { %struct.Object, ptr, ptr, ptr, ptr, %struct.CharBackend, %struct.CharBackend, %struct.CharBackend, %struct.CharBackend, %struct.SocketReadState, %struct.SocketReadState, %struct.SocketReadState, %struct.SendCo, %struct.SendCo, i8, i64, i32, %struct._GQueue, ptr, ptr, ptr, ptr, ptr, i32, %union.anon.0 }
%struct.Object = type { ptr, ptr, ptr, i32, ptr }
%struct.CharBackend = type { ptr, ptr, ptr, ptr, ptr, ptr, i32, i32 }
%struct.SocketReadState = type { i32, i8, i32, i32, i32, [69632 x i8], ptr }
%struct.SendCo = type { ptr, ptr, ptr, %struct._GQueue, i8, i8, i32 }
%struct._GQueue = type { ptr, ptr, i32 }
%union.anon.0 = type { %struct.QTailQLink }
%struct.Connection = type { %struct._GQueue, %struct._GQueue, i8, i8, i32, i32, i32, i32, i32, i32 }

; Function Attrs: nounwind sspstrong uwtable
define internal i32 @colo_old_packet_check_one_conn(ptr noundef %conn, ptr noundef %s) #0 {
entry:
  %retval = alloca i32, align 4
  %conn.addr = alloca ptr, align 8
  %s.addr = alloca ptr, align 8
  store ptr %conn, ptr %conn.addr, align 8
  store ptr %s, ptr %s.addr, align 8
  %0 = load ptr, ptr %conn.addr, align 8
  %primary_list = getelementptr inbounds %struct.Connection, ptr %0, i32 0, i32 0
  %call = call i32 @g_queue_is_empty(ptr noundef %primary_list)
  %tobool = icmp ne i32 %call, 0
  br i1 %tobool, label %if.end5, label %if.then

if.then:                                          ; preds = %entry
  %1 = load ptr, ptr %conn.addr, align 8
  %primary_list1 = getelementptr inbounds %struct.Connection, ptr %1, i32 0, i32 0
  %2 = load ptr, ptr %s.addr, align 8
  %compare_timeout = getelementptr inbounds %struct.CompareState, ptr %2, i32 0, i32 15
  %call2 = call ptr @g_queue_find_custom(ptr noundef %primary_list1, ptr noundef %compare_timeout, ptr noundef @colo_old_packet_check_one)
  %tobool3 = icmp ne ptr %call2, null
  br i1 %tobool3, label %if.then4, label %if.end

if.then4:                                         ; preds = %if.then
  br label %out

if.end:                                           ; preds = %if.then
  br label %if.end5

if.end5:                                          ; preds = %if.end, %entry
  %3 = load ptr, ptr %conn.addr, align 8
  %secondary_list = getelementptr inbounds %struct.Connection, ptr %3, i32 0, i32 1
  %call6 = call i32 @g_queue_is_empty(ptr noundef %secondary_list)
  %tobool7 = icmp ne i32 %call6, 0
  br i1 %tobool7, label %if.end15, label %if.then8

if.then8:                                         ; preds = %if.end5
  %4 = load ptr, ptr %conn.addr, align 8
  %secondary_list9 = getelementptr inbounds %struct.Connection, ptr %4, i32 0, i32 1
  %5 = load ptr, ptr %s.addr, align 8
  %compare_timeout10 = getelementptr inbounds %struct.CompareState, ptr %5, i32 0, i32 15
  %call11 = call ptr @g_queue_find_custom(ptr noundef %secondary_list9, ptr noundef %compare_timeout10, ptr noundef @colo_old_packet_check_one)
  %tobool12 = icmp ne ptr %call11, null
  br i1 %tobool12, label %if.then13, label %if.end14

if.then13:                                        ; preds = %if.then8
  br label %out

if.end14:                                         ; preds = %if.then8
  br label %if.end15

if.end15:                                         ; preds = %if.end14, %if.end5
  store i32 1, ptr %retval, align 4
  br label %return

out:                                              ; preds = %if.then13, %if.then4
  %6 = load ptr, ptr %s.addr, align 8
  call void @colo_compare_inconsistency_notify(ptr noundef %6)
  store i32 0, ptr %retval, align 4
  br label %return

return:                                           ; preds = %out, %if.end15
  %7 = load i32, ptr %retval, align 4
  ret i32 %7
}