; Function Attrs: nounwind sspstrong uwtable
define internal range(i32 0, 2) i32 @colo_old_packet_check_one_conn(ptr noundef %conn, ptr noundef %s) #0 {
entry:
  %call = tail call i32 @g_queue_is_empty(ptr noundef %conn) #16
  %tobool.not = icmp eq i32 %call, 0
  br i1 %tobool.not, label %if.then, label %if.end5

if.then:                                          ; preds = %entry
  %compare_timeout = getelementptr inbounds nuw i8, ptr %s, i64 209408
  %call2 = tail call ptr @g_queue_find_custom(ptr noundef %conn, ptr noundef nonnull %compare_timeout, ptr noundef nonnull @colo_old_packet_check_one) #16
  %tobool3.not = icmp eq ptr %call2, null
  br i1 %tobool3.not, label %if.end5, label %out

if.end5:                                          ; preds = %if.then, %entry
  %secondary_list = getelementptr inbounds nuw i8, ptr %conn, i64 24
  %call6 = tail call i32 @g_queue_is_empty(ptr noundef nonnull %secondary_list) #16
  %tobool7.not = icmp eq i32 %call6, 0
  br i1 %tobool7.not, label %if.then8, label %return

if.then8:                                         ; preds = %if.end5
  %compare_timeout10 = getelementptr inbounds nuw i8, ptr %s, i64 209408
  %call11 = tail call ptr @g_queue_find_custom(ptr noundef nonnull %secondary_list, ptr noundef nonnull %compare_timeout10, ptr noundef nonnull @colo_old_packet_check_one) #16
  %tobool12.not = icmp eq ptr %call11, null
  br i1 %tobool12.not, label %return, label %out

out:                                              ; preds = %if.then8, %if.then
  tail call fastcc void @colo_compare_inconsistency_notify(ptr noundef nonnull %s)
  br label %return

return:                                           ; preds = %if.end5, %if.then8, %out
  %retval.0 = phi i32 [ 0, %out ], [ 1, %if.then8 ], [ 1, %if.end5 ]
  ret i32 %retval.0
}